target datalayout = "e-m:e-p270:32:32-p271:32:32-p272:64:64-i64:64-i128:128-f80:128-n8:16:32:64-S128"
target triple = "x86_64-pc-linux-gnu"

%struct._object = type { %union.anon, ptr }
%union.anon = type { i64 }
%struct.HeapCTypeVectorcallObject = type { %struct._object, i64 }

@PyExc_IndexError = external global ptr, align 8
@.str.142 = private unnamed_addr constant [42 x i8] c"HeapCTypeVectorcall() takes no arguments!\00", align 1

; Function Attrs: inlinehint nounwind uwtable
define internal i64 @_PyVectorcall_NARGS(i64 noundef %0) #4 {
  %2 = alloca i64, align 8
  store i64 %0, ptr %2, align 8, !tbaa !53
  %3 = load i64, ptr %2, align 8, !tbaa !53
  %4 = and i64 %3, 9223372036854775807
  ret i64 %4
}

; Function Attrs: nounwind uwtable
define internal ptr @heapctype_vectorcall_vectorcall(ptr noundef %0, ptr noundef %1, i64 noundef %2, ptr noundef %3) #0 {
  %5 = alloca ptr, align 8
  %6 = alloca ptr, align 8
  %7 = alloca ptr, align 8
  %8 = alloca i64, align 8
  %9 = alloca ptr, align 8
  %10 = alloca ptr, align 8
  %11 = alloca i32, align 4
  store ptr %0, ptr %6, align 8, !tbaa !3
  store ptr %1, ptr %7, align 8, !tbaa !49
  store i64 %2, ptr %8, align 8, !tbaa !53
  store ptr %3, ptr %9, align 8, !tbaa !3
  %12 = load ptr, ptr %9, align 8, !tbaa !3
  %13 = icmp ne ptr %12, null
  br i1 %13, label %18, label %14

14:                                               ; preds = %4
  %15 = load i64, ptr %8, align 8, !tbaa !53
  %16 = call i64 @_PyVectorcall_NARGS(i64 noundef %15)
  %17 = icmp ne i64 %16, 0
  br i1 %17, label %18, label %21

18:                                               ; preds = %14, %4
  %19 = load ptr, ptr @PyExc_IndexError, align 8, !tbaa !3
  %20 = call ptr (ptr, ptr, ...) @PyErr_Format(ptr noundef %19, ptr noundef @.str.142)
  store ptr %20, ptr %5, align 8
  br label %32

21:                                               ; preds = %14
  call void @llvm.lifetime.start.p0(i64 8, ptr %10) #9
  %22 = load ptr, ptr %6, align 8, !tbaa !3
  %23 = call ptr @_PyObject_New(ptr noundef %22)
  store ptr %23, ptr %10, align 8, !tbaa !20
  %24 = load ptr, ptr %10, align 8, !tbaa !20
  %25 = icmp ne ptr %24, null
  br i1 %25, label %27, label %26

26:                                               ; preds = %21
  store ptr null, ptr %5, align 8
  store i32 1, ptr %11, align 4
  br label %31

27:                                               ; preds = %21
  %28 = load ptr, ptr %10, align 8, !tbaa !20
  %29 = getelementptr inbounds nuw %struct.HeapCTypeVectorcallObject, ptr %28, i32 0, i32 1
  store i64 1, ptr %29, align 8, !tbaa !56
  %30 = load ptr, ptr %10, align 8, !tbaa !20
  store ptr %30, ptr %5, align 8
  store i32 1, ptr %11, align 4
  br label %31

31:                                               ; preds = %27, %26
  call void @llvm.lifetime.end.p0(i64 8, ptr %10) #9
  br label %32

32:                                               ; preds = %31, %18
  %33 = load ptr, ptr %5, align 8
  ret ptr %33
}