; Function Attrs: nounwind uwtable
define internal ptr @heapctype_vectorcall_vectorcall(ptr noundef %0, ptr readnone captures(none) %1, i64 noundef %2, ptr noundef readnone %3) #0 {
  %.not = icmp eq ptr %3, null
  %5 = and i64 %2, 9223372036854775807
  %.not7 = icmp eq i64 %5, 0
  %or.cond = and i1 %.not, %.not7
  br i1 %or.cond, label %9, label %6

6:                                                ; preds = %4
  %7 = load ptr, ptr @PyExc_IndexError, align 8, !tbaa !23
  %8 = tail call ptr (ptr, ptr, ...) @PyErr_Format(ptr noundef %7, ptr noundef nonnull @.str.142) #8
  br label %13

9:                                                ; preds = %4
  %10 = tail call ptr @_PyObject_New(ptr noundef %0) #8
  %.not8 = icmp eq ptr %10, null
  br i1 %.not8, label %13, label %11

11:                                               ; preds = %9
  %12 = getelementptr inbounds nuw i8, ptr %10, i64 16
  store i64 1, ptr %12, align 8, !tbaa !49
  br label %13

13:                                               ; preds = %11, %9, %6
  %.0 = phi ptr [ %8, %6 ], [ %10, %11 ], [ null, %9 ]
  ret ptr %.0
}